target datalayout = "e-m:e-p270:32:32-p271:32:32-p272:64:64-i64:64-i128:128-f80:128-n8:16:32:64-S128"
target triple = "x86_64-pc-linux-gnu"

%struct.ident_t = type { i32, i32, i32, i32, ptr }
%"class.gmx::ArrayRef.479" = type { %"struct.gmx::ArrayRefIter.480", %"struct.gmx::ArrayRefIter.480" }
%"struct.gmx::ArrayRefIter.480" = type { ptr }
%"class.gmx::ArrayRef.817" = type { %"struct.gmx::ArrayRefIter.818", %"struct.gmx::ArrayRefIter.818" }
%"struct.gmx::ArrayRefIter.818" = type { ptr }
%struct.gmx_cgsort_t = type { i32 }

@1 = private unnamed_addr constant %struct.ident_t { i32 0, i32 514, i32 0, i32 22, ptr @0 }, align 8

; Function Attrs: mustprogress nounwind uwtable
define linkonce_odr noundef nonnull align 4 dereferenceable(4) ptr @_ZNK3gmx12ArrayRefIterIiEdeEv(ptr noundef nonnull align 8 dereferenceable(8) %0) #0 comdat align 2 {
  %2 = alloca ptr, align 8
  store ptr %0, ptr %2, align 8, !tbaa !895
  %3 = load ptr, ptr %2, align 8
  %4 = getelementptr inbounds nuw %"struct.gmx::ArrayRefIter.480", ptr %3, i32 0, i32 0
  %5 = load ptr, ptr %4, align 8, !tbaa !897
  ret ptr %5
}

; Function Attrs: mustprogress nounwind uwtable
define linkonce_odr noundef nonnull align 8 dereferenceable(8) ptr @_ZN3gmx12ArrayRefIterIiEpLEl(ptr noundef nonnull align 8 dereferenceable(8) %0, i64 noundef %1) #0 comdat align 2 {
  %3 = alloca ptr, align 8
  %4 = alloca i64, align 8
  store ptr %0, ptr %3, align 8, !tbaa !895
  store i64 %1, ptr %4, align 8, !tbaa !155
  %5 = load ptr, ptr %3, align 8
  %6 = load i64, ptr %4, align 8, !tbaa !155
  %7 = getelementptr inbounds nuw %"struct.gmx::ArrayRefIter.480", ptr %5, i32 0, i32 0
  %8 = load ptr, ptr %7, align 8, !tbaa !897
  %9 = getelementptr inbounds i32, ptr %8, i64 %6
  store ptr %9, ptr %7, align 8, !tbaa !897
  ret ptr %5
}

; Function Attrs: mustprogress nounwind uwtable
define linkonce_odr noundef nonnull align 8 dereferenceable(8) ptr @_ZNK3gmx5boost14stl_interfaces2v118iterator_interfaceINS_12ArrayRefIterIiEESt26random_access_iterator_tagiRiPilvE7derivedEv(ptr noundef nonnull align 1 dereferenceable(1) %0) #0 comdat align 2 {
  %2 = alloca ptr, align 8
  store ptr %0, ptr %2, align 8, !tbaa !912
  %3 = load ptr, ptr %2, align 8
  ret ptr %3
}

; Function Attrs: mustprogress nounwind uwtable
define linkonce_odr noundef nonnull align 4 dereferenceable(4) ptr @_ZNK3gmx12ArrayRefIterIK12gmx_cgsort_tEdeEv(ptr noundef nonnull align 8 dereferenceable(8) %0) #0 comdat align 2 {
  %2 = alloca ptr, align 8
  store ptr %0, ptr %2, align 8, !tbaa !1118
  %3 = load ptr, ptr %2, align 8
  %4 = getelementptr inbounds nuw %"struct.gmx::ArrayRefIter.818", ptr %3, i32 0, i32 0
  %5 = load ptr, ptr %4, align 8, !tbaa !1120
  ret ptr %5
}

; Function Attrs: mustprogress nounwind uwtable
define linkonce_odr noundef nonnull align 8 dereferenceable(8) ptr @_ZN3gmx12ArrayRefIterIK12gmx_cgsort_tEpLEl(ptr noundef nonnull align 8 dereferenceable(8) %0, i64 noundef %1) #0 comdat align 2 {
  %3 = alloca ptr, align 8
  %4 = alloca i64, align 8
  store ptr %0, ptr %3, align 8, !tbaa !1118
  store i64 %1, ptr %4, align 8, !tbaa !155
  %5 = load ptr, ptr %3, align 8
  %6 = load i64, ptr %4, align 8, !tbaa !155
  %7 = getelementptr inbounds nuw %"struct.gmx::ArrayRefIter.818", ptr %5, i32 0, i32 0
  %8 = load ptr, ptr %7, align 8, !tbaa !1120
  %9 = getelementptr inbounds %struct.gmx_cgsort_t, ptr %8, i64 %6
  store ptr %9, ptr %7, align 8, !tbaa !1120
  ret ptr %5
}

; Function Attrs: mustprogress nounwind uwtable
define linkonce_odr noundef nonnull align 8 dereferenceable(8) ptr @_ZNK3gmx5boost14stl_interfaces2v118iterator_interfaceINS_12ArrayRefIterIK12gmx_cgsort_tEESt26random_access_iterator_tagS6_RS6_PS6_lvE7derivedEv(ptr noundef nonnull align 1 dereferenceable(1) %0) #0 comdat align 2 {
  %2 = alloca ptr, align 8
  store ptr %0, ptr %2, align 8, !tbaa !1143
  %3 = load ptr, ptr %2, align 8
  ret ptr %3
}

; Function Attrs: mustprogress nounwind uwtable
define linkonce_odr noundef i64 @_ZNK3gmx12ArrayRefIterIK12gmx_cgsort_tEmiES3_(ptr noundef nonnull align 8 dereferenceable(8) %0, ptr %1) #0 comdat align 2 {
  %3 = alloca %"struct.gmx::ArrayRefIter.818", align 8
  %4 = alloca ptr, align 8
  %5 = getelementptr inbounds nuw %"struct.gmx::ArrayRefIter.818", ptr %3, i32 0, i32 0
  store ptr %1, ptr %5, align 8
  store ptr %0, ptr %4, align 8, !tbaa !1118
  %6 = load ptr, ptr %4, align 8
  %7 = getelementptr inbounds nuw %"struct.gmx::ArrayRefIter.818", ptr %6, i32 0, i32 0
  %8 = load ptr, ptr %7, align 8, !tbaa !1120
  %9 = getelementptr inbounds nuw %"struct.gmx::ArrayRefIter.818", ptr %3, i32 0, i32 0
  %10 = load ptr, ptr %9, align 8, !tbaa !1120
  %11 = ptrtoint ptr %8 to i64
  %12 = ptrtoint ptr %10 to i64
  %13 = sub i64 %11, %12
  %14 = sdiv exact i64 %13, 4
  ret i64 %14
}

; Function Attrs: mustprogress nounwind uwtable
define linkonce_odr noundef nonnull align 4 dereferenceable(4) ptr @_ZNK3gmx5boost14stl_interfaces2v118iterator_interfaceINS_12ArrayRefIterIiEESt26random_access_iterator_tagiRiPilvEixIS5_EEDTcmpLclsr3stdE7declvalIRT_EEfp_declsr3stdE7declvalISC_EEEl(ptr noundef nonnull align 1 dereferenceable(1) %0, i64 noundef %1) #0 comdat align 2 {
  %3 = alloca ptr, align 8
  %4 = alloca i64, align 8
  %5 = alloca %"struct.gmx::ArrayRefIter.480", align 8
  store ptr %0, ptr %3, align 8, !tbaa !912
  store i64 %1, ptr %4, align 8, !tbaa !155
  %6 = load ptr, ptr %3, align 8
  call void @llvm.lifetime.start.p0(i64 8, ptr %5) #17
  %7 = call noundef nonnull align 8 dereferenceable(8) ptr @_ZNK3gmx5boost14stl_interfaces2v118iterator_interfaceINS_12ArrayRefIterIiEESt26random_access_iterator_tagiRiPilvE7derivedEv(ptr noundef nonnull align 1 dereferenceable(1) %6) #17
  call void @llvm.memcpy.p0.p0.i64(ptr align 8 %5, ptr align 8 %7, i64 8, i1 false)
  %8 = load i64, ptr %4, align 8, !tbaa !155
  %9 = call noundef nonnull align 8 dereferenceable(8) ptr @_ZN3gmx12ArrayRefIterIiEpLEl(ptr noundef nonnull align 8 dereferenceable(8) %5, i64 noundef %8) #17
  %10 = call noundef nonnull align 4 dereferenceable(4) ptr @_ZNK3gmx12ArrayRefIterIiEdeEv(ptr noundef nonnull align 8 dereferenceable(8) %5) #17
  call void @llvm.lifetime.end.p0(i64 8, ptr %5) #17
  ret ptr %10
}

; Function Attrs: mustprogress nounwind uwtable
define linkonce_odr noundef nonnull align 4 dereferenceable(4) ptr @_ZNK3gmx5boost14stl_interfaces2v118iterator_interfaceINS_12ArrayRefIterIK12gmx_cgsort_tEESt26random_access_iterator_tagS6_RS6_PS6_lvEixIS7_EEDTcmpLclsr3stdE7declvalIRT_EEfp_declsr3stdE7declvalISE_EEEl(ptr noundef nonnull align 1 dereferenceable(1) %0, i64 noundef %1) #0 comdat align 2 {
  %3 = alloca ptr, align 8
  %4 = alloca i64, align 8
  %5 = alloca %"struct.gmx::ArrayRefIter.818", align 8
  store ptr %0, ptr %3, align 8, !tbaa !1143
  store i64 %1, ptr %4, align 8, !tbaa !155
  %6 = load ptr, ptr %3, align 8
  call void @llvm.lifetime.start.p0(i64 8, ptr %5) #17
  %7 = call noundef nonnull align 8 dereferenceable(8) ptr @_ZNK3gmx5boost14stl_interfaces2v118iterator_interfaceINS_12ArrayRefIterIK12gmx_cgsort_tEESt26random_access_iterator_tagS6_RS6_PS6_lvE7derivedEv(ptr noundef nonnull align 1 dereferenceable(1) %6) #17
  call void @llvm.memcpy.p0.p0.i64(ptr align 8 %5, ptr align 8 %7, i64 8, i1 false)
  %8 = load i64, ptr %4, align 8, !tbaa !155
  %9 = call noundef nonnull align 8 dereferenceable(8) ptr @_ZN3gmx12ArrayRefIterIK12gmx_cgsort_tEpLEl(ptr noundef nonnull align 8 dereferenceable(8) %5, i64 noundef %8) #17
  %10 = call noundef nonnull align 4 dereferenceable(4) ptr @_ZNK3gmx12ArrayRefIterIK12gmx_cgsort_tEdeEv(ptr noundef nonnull align 8 dereferenceable(8) %5) #17
  call void @llvm.lifetime.end.p0(i64 8, ptr %5) #17
  ret ptr %10
}

; Function Attrs: mustprogress nounwind uwtable
define linkonce_odr noundef i64 @_ZNK3gmx8ArrayRefIK12gmx_cgsort_tE4sizeEv(ptr noundef nonnull align 8 dereferenceable(16) %0) #0 comdat align 2 {
  %2 = alloca ptr, align 8
  %3 = alloca %"struct.gmx::ArrayRefIter.818", align 8
  store ptr %0, ptr %2, align 8, !tbaa !1071
  %4 = load ptr, ptr %2, align 8
  %5 = getelementptr inbounds nuw %"class.gmx::ArrayRef.817", ptr %4, i32 0, i32 1
  %6 = getelementptr inbounds nuw %"class.gmx::ArrayRef.817", ptr %4, i32 0, i32 0
  call void @llvm.memcpy.p0.p0.i64(ptr align 8 %3, ptr align 8 %6, i64 8, i1 false)
  %7 = getelementptr inbounds nuw %"struct.gmx::ArrayRefIter.818", ptr %3, i32 0, i32 0
  %8 = load ptr, ptr %7, align 8
  %9 = call noundef i64 @_ZNK3gmx12ArrayRefIterIK12gmx_cgsort_tEmiES3_(ptr noundef nonnull align 8 dereferenceable(8) %5, ptr %8) #17
  ret i64 %9
}

; Function Attrs: noinline noreturn nounwind uwtable
define linkonce_odr hidden void @__clang_call_terminate(ptr noundef %0) #8 comdat {
  %2 = call ptr @__cxa_begin_catch(ptr %0) #17
  call void @_ZSt9terminatev() #24
  unreachable
}

; Function Attrs: mustprogress nounwind uwtable
define linkonce_odr noundef nonnull align 4 dereferenceable(4) ptr @_ZNK3gmx8ArrayRefIiEixEm(ptr noundef nonnull align 8 dereferenceable(16) %0, i64 noundef %1) #0 comdat align 2 {
  %3 = alloca ptr, align 8
  %4 = alloca i64, align 8
  store ptr %0, ptr %3, align 8, !tbaa !708
  store i64 %1, ptr %4, align 8, !tbaa !155
  %5 = load ptr, ptr %3, align 8
  %6 = getelementptr inbounds nuw %"class.gmx::ArrayRef.479", ptr %5, i32 0, i32 0
  %7 = load i64, ptr %4, align 8, !tbaa !155
  %8 = call noundef nonnull align 4 dereferenceable(4) ptr @_ZNK3gmx5boost14stl_interfaces2v118iterator_interfaceINS_12ArrayRefIterIiEESt26random_access_iterator_tagiRiPilvEixIS5_EEDTcmpLclsr3stdE7declvalIRT_EEfp_declsr3stdE7declvalISC_EEEl(ptr noundef nonnull align 1 dereferenceable(1) %6, i64 noundef %7) #17
  ret ptr %8
}

; Function Attrs: inlinehint mustprogress nounwind uwtable
define internal noundef zeroext i1 @_ZL16isValidLocalAtomi(i32 noundef %0) #4 {
  %2 = alloca i32, align 4
  store i32 %0, ptr %2, align 4, !tbaa !141
  %3 = load i32, ptr %2, align 4, !tbaa !141
  %4 = icmp sge i32 %3, 0
  ret i1 %4
}

; Function Attrs: mustprogress nounwind uwtable
define linkonce_odr noundef nonnull align 4 dereferenceable(4) ptr @_ZNK3gmx8ArrayRefIK12gmx_cgsort_tEixEm(ptr noundef nonnull align 8 dereferenceable(16) %0, i64 noundef %1) #0 comdat align 2 {
  %3 = alloca ptr, align 8
  %4 = alloca i64, align 8
  store ptr %0, ptr %3, align 8, !tbaa !1071
  store i64 %1, ptr %4, align 8, !tbaa !155
  %5 = load ptr, ptr %3, align 8
  %6 = getelementptr inbounds nuw %"class.gmx::ArrayRef.817", ptr %5, i32 0, i32 0
  %7 = load i64, ptr %4, align 8, !tbaa !155
  %8 = call noundef nonnull align 4 dereferenceable(4) ptr @_ZNK3gmx5boost14stl_interfaces2v118iterator_interfaceINS_12ArrayRefIterIK12gmx_cgsort_tEESt26random_access_iterator_tagS6_RS6_PS6_lvEixIS7_EEDTcmpLclsr3stdE7declvalIRT_EEfp_declsr3stdE7declvalISE_EEEl(ptr noundef nonnull align 1 dereferenceable(1) %6, i64 noundef %7) #17
  ret ptr %8
}

; Function Attrs: mustprogress uwtable
define linkonce_odr noundef i64 @_ZN3gmx5ssizeINS_8ArrayRefIK12gmx_cgsort_tEEEElRKT_(ptr noundef nonnull align 8 dereferenceable(16) %0) #3 comdat {
  %2 = alloca ptr, align 8
  store ptr %0, ptr %2, align 8, !tbaa !1071
  %3 = load ptr, ptr %2, align 8, !tbaa !1071
  %4 = call noundef i64 @_ZNK3gmx8ArrayRefIK12gmx_cgsort_tE4sizeEv(ptr noundef nonnull align 8 dereferenceable(16) %3)
  ret i64 %4
}

; Function Attrs: alwaysinline norecurse nounwind uwtable
define internal void @_ZL11orderVectorIiEvN3gmx8ArrayRefIK12gmx_cgsort_tEENS1_IT_EES5_S6_.omp_outlined(ptr noalias noundef %0, ptr noalias noundef %1, ptr noundef nonnull align 8 dereferenceable(16) %2, ptr noundef nonnull align 8 dereferenceable(16) %3, ptr noundef nonnull align 8 dereferenceable(16) %4, ptr noundef nonnull align 4 dereferenceable(4) %5) #16 personality ptr @__gxx_personality_v0 {
  %7 = alloca ptr, align 8
  %8 = alloca ptr, align 8
  %9 = alloca ptr, align 8
  %10 = alloca ptr, align 8
  %11 = alloca ptr, align 8
  %12 = alloca ptr, align 8
  %13 = alloca i64, align 8
  %14 = alloca i64, align 8
  %15 = alloca i64, align 8
  %16 = alloca i64, align 8
  %17 = alloca i64, align 8
  %18 = alloca i64, align 8
  %19 = alloca i64, align 8
  %20 = alloca i32, align 4
  %21 = alloca i64, align 8
  store ptr %0, ptr %7, align 8, !tbaa !152
  store ptr %1, ptr %8, align 8, !tbaa !152
  store ptr %2, ptr %9, align 8, !tbaa !1071
  store ptr %3, ptr %10, align 8, !tbaa !708
  store ptr %4, ptr %11, align 8, !tbaa !708
  store ptr %5, ptr %12, align 8, !tbaa !152
  %22 = load ptr, ptr %9, align 8, !tbaa !1071
  %23 = load ptr, ptr %10, align 8, !tbaa !708
  %24 = load ptr, ptr %11, align 8, !tbaa !708
  %25 = load ptr, ptr %12, align 8, !tbaa !152
  call void @llvm.lifetime.start.p0(i64 8, ptr %13) #17
  call void @llvm.lifetime.start.p0(i64 8, ptr %14) #17
  %26 = invoke noundef i64 @_ZN3gmx5ssizeINS_8ArrayRefIK12gmx_cgsort_tEEEElRKT_(ptr noundef nonnull align 8 dereferenceable(16) %22)
          to label %27 unwind label %86

27:                                               ; preds = %6
  store i64 %26, ptr %14, align 8, !tbaa !155
  call void @llvm.lifetime.start.p0(i64 8, ptr %15) #17
  %28 = load i64, ptr %14, align 8, !tbaa !155
  %29 = sub nsw i64 %28, 0
  %30 = sdiv i64 %29, 1
  %31 = sub nsw i64 %30, 1
  store i64 %31, ptr %15, align 8, !tbaa !155
  call void @llvm.lifetime.start.p0(i64 8, ptr %16) #17
  store i64 0, ptr %16, align 8, !tbaa !155
  call void @llvm.lifetime.end.p0(i64 8, ptr %16) #17
  %32 = load i64, ptr %14, align 8, !tbaa !155
  %33 = icmp slt i64 0, %32
  br i1 %33, label %34, label %85

34:                                               ; preds = %27
  call void @llvm.lifetime.start.p0(i64 8, ptr %17) #17
  store i64 0, ptr %17, align 8, !tbaa !155
  call void @llvm.lifetime.start.p0(i64 8, ptr %18) #17
  %35 = load i64, ptr %15, align 8, !tbaa !155
  store i64 %35, ptr %18, align 8, !tbaa !155
  call void @llvm.lifetime.start.p0(i64 8, ptr %19) #17
  store i64 1, ptr %19, align 8, !tbaa !155
  call void @llvm.lifetime.start.p0(i64 4, ptr %20) #17
  store i32 0, ptr %20, align 4, !tbaa !141
  call void @llvm.lifetime.start.p0(i64 8, ptr %21) #17
  %36 = load ptr, ptr %7, align 8
  %37 = load i32, ptr %36, align 4, !tbaa !141
  call void @__kmpc_for_static_init_8(ptr @1, i32 %37, i32 34, ptr %20, ptr %17, ptr %18, ptr %19, i64 1, i64 1)
  %38 = load i64, ptr %18, align 8, !tbaa !155
  %39 = load i64, ptr %15, align 8, !tbaa !155
  %40 = icmp sgt i64 %38, %39
  br i1 %40, label %41, label %43

41:                                               ; preds = %34
  %42 = load i64, ptr %15, align 8, !tbaa !155
  br label %45

43:                                               ; preds = %34
  %44 = load i64, ptr %18, align 8, !tbaa !155
  br label %45

45:                                               ; preds = %43, %41
  %46 = phi i64 [ %42, %41 ], [ %44, %43 ]
  store i64 %46, ptr %18, align 8, !tbaa !155
  %47 = load i64, ptr %17, align 8, !tbaa !155
  store i64 %47, ptr %13, align 8, !tbaa !155
  br label %48

48:                                               ; preds = %78, %45
  %49 = load i64, ptr %13, align 8, !tbaa !155
  %50 = load i64, ptr %18, align 8, !tbaa !155
  %51 = icmp sle i64 %49, %50
  br i1 %51, label %53, label %52

52:                                               ; preds = %48
  br label %81

53:                                               ; preds = %48
  %54 = load i64, ptr %13, align 8, !tbaa !155
  %55 = mul nsw i64 %54, 1
  %56 = add nsw i64 0, %55
  store i64 %56, ptr %21, align 8, !tbaa !155
  %57 = load i64, ptr %21, align 8, !tbaa !155
  %58 = call noundef nonnull align 4 dereferenceable(4) ptr @_ZNK3gmx8ArrayRefIK12gmx_cgsort_tEixEm(ptr noundef nonnull align 8 dereferenceable(16) %22, i64 noundef %57)
  %59 = getelementptr inbounds nuw %struct.gmx_cgsort_t, ptr %58, i32 0, i32 0
  %60 = load i32, ptr %59, align 4, !tbaa !1069
  %61 = call noundef zeroext i1 @_ZL16isValidLocalAtomi(i32 noundef %60)
  br i1 %61, label %62, label %72

62:                                               ; preds = %53
  %63 = load i64, ptr %21, align 8, !tbaa !155
  %64 = call noundef nonnull align 4 dereferenceable(4) ptr @_ZNK3gmx8ArrayRefIK12gmx_cgsort_tEixEm(ptr noundef nonnull align 8 dereferenceable(16) %22, i64 noundef %63)
  %65 = getelementptr inbounds nuw %struct.gmx_cgsort_t, ptr %64, i32 0, i32 0
  %66 = load i32, ptr %65, align 4, !tbaa !1069
  %67 = sext i32 %66 to i64
  %68 = call noundef nonnull align 4 dereferenceable(4) ptr @_ZNK3gmx8ArrayRefIiEixEm(ptr noundef nonnull align 8 dereferenceable(16) %24, i64 noundef %67)
  %69 = load i32, ptr %68, align 4, !tbaa !141
  %70 = load i64, ptr %21, align 8, !tbaa !155
  %71 = call noundef nonnull align 4 dereferenceable(4) ptr @_ZNK3gmx8ArrayRefIiEixEm(ptr noundef nonnull align 8 dereferenceable(16) %23, i64 noundef %70)
  store i32 %69, ptr %71, align 4, !tbaa !141
  br label %76

72:                                               ; preds = %53
  %73 = load i32, ptr %25, align 4, !tbaa !141
  %74 = load i64, ptr %21, align 8, !tbaa !155
  %75 = call noundef nonnull align 4 dereferenceable(4) ptr @_ZNK3gmx8ArrayRefIiEixEm(ptr noundef nonnull align 8 dereferenceable(16) %23, i64 noundef %74)
  store i32 %73, ptr %75, align 4, !tbaa !141
  br label %76

76:                                               ; preds = %72, %62
  br label %77

77:                                               ; preds = %76
  br label %78

78:                                               ; preds = %77
  %79 = load i64, ptr %13, align 8, !tbaa !155
  %80 = add nsw i64 %79, 1
  store i64 %80, ptr %13, align 8, !tbaa !155
  br label %48

81:                                               ; preds = %52
  br label %82

82:                                               ; preds = %81
  %83 = load ptr, ptr %7, align 8
  %84 = load i32, ptr %83, align 4, !tbaa !141
  call void @__kmpc_for_static_fini(ptr @1, i32 %84)
  call void @llvm.lifetime.end.p0(i64 8, ptr %21) #17
  call void @llvm.lifetime.end.p0(i64 4, ptr %20) #17
  call void @llvm.lifetime.end.p0(i64 8, ptr %19) #17
  call void @llvm.lifetime.end.p0(i64 8, ptr %18) #17
  call void @llvm.lifetime.end.p0(i64 8, ptr %17) #17
  br label %85

85:                                               ; preds = %82, %27
  call void @llvm.lifetime.end.p0(i64 8, ptr %15) #17
  call void @llvm.lifetime.end.p0(i64 8, ptr %14) #17
  call void @llvm.lifetime.end.p0(i64 8, ptr %13) #17
  ret void

86:                                               ; preds = %6
  %87 = landingpad { ptr, i32 }
          catch ptr null
  %88 = extractvalue { ptr, i32 } %87, 0
  call void @__clang_call_terminate(ptr %88) #24
  unreachable
}